; Function Attrs: mustprogress nofree norecurse nosync nounwind willreturn memory(read, inaccessiblemem: none) uwtable
define i64 @H5HF_get_dblock_free_test(ptr noundef readonly captures(none) %0, i32 noundef %1) local_unnamed_addr #4 {
  %3 = load i8, ptr @H5HF_init_g, align 1, !tbaa !3, !range !7, !noundef !8
  %4 = trunc nuw i8 %3 to i1
  %5 = load i8, ptr @H5_libterm_g, align 1, !range !7
  %6 = trunc nuw i8 %5 to i1
  %7 = xor i1 %6, true
  %8 = select i1 %4, i1 true, i1 %7
  br i1 %8, label %9, label %16, !prof !9

9:                                                ; preds = %2
  %10 = load ptr, ptr %0, align 8, !tbaa !10
  %11 = getelementptr inbounds nuw i8, ptr %10, i64 360
  %12 = load ptr, ptr %11, align 8, !tbaa !70
  %13 = zext i32 %1 to i64
  %14 = getelementptr inbounds nuw i64, ptr %12, i64 %13
  %15 = load i64, ptr %14, align 8, !tbaa !69
  br label %16

16:                                               ; preds = %9, %2
  %.0 = phi i64 [ %15, %9 ], [ 0, %2 ]
  ret i64 %.0
}